target datalayout = "e-m:e-p270:32:32-p271:32:32-p272:64:64-i64:64-i128:128-f80:128-n8:16:32:64-S128"
target triple = "x86_64-unknown-linux-gnu"

%"class.boost::detail::shared_count" = type { ptr }
%"class.boost::shared_ptr.18" = type { ptr, %"class.boost::detail::shared_count" }
%"class.QuantLib::TypePayoff" = type <{ %"class.QuantLib::Payoff", i32, [4 x i8] }>
%"class.QuantLib::Payoff" = type { ptr }
%"class.QuantLib::StrikedTypePayoff" = type { %"class.QuantLib::TypePayoff.base", double }
%"class.QuantLib::TypePayoff.base" = type <{ %"class.QuantLib::Payoff", i32 }>

@.str.77 = private unnamed_addr constant [8 x i8] c"px != 0\00", align 1
@.str.78 = private unnamed_addr constant [102 x i8] c"generated/home/dtcxzyw/WorkSpace/SDK/vcpkg/installed/x64-linux/include/boost/smart_ptr/shared_ptr.hpp\00", align 1
@__PRETTY_FUNCTION__._ZNK5boost10shared_ptrIN8QuantLib18PlainVanillaPayoffEEptEv = private unnamed_addr constant [153 x i8] c"typename boost::detail::sp_member_access<T>::type boost::shared_ptr<QuantLib::PlainVanillaPayoff>::operator->() const [T = QuantLib::PlainVanillaPayoff]\00", align 1

; Function Attrs: mustprogress nounwind uwtable
define linkonce_odr noundef double @_ZNK8QuantLib17StrikedTypePayoff6strikeEv(ptr noundef nonnull align 8 dereferenceable(24) %this) #5 comdat align 2 {
entry:
  %this.addr = alloca ptr, align 8
  store ptr %this, ptr %this.addr, align 8, !tbaa !3
  %this1 = load ptr, ptr %this.addr, align 8
  %strike_ = getelementptr inbounds nuw %"class.QuantLib::StrikedTypePayoff", ptr %this1, i32 0, i32 1
  %0 = load double, ptr %strike_, align 8, !tbaa !26
  ret double %0
}

; Function Attrs: mustprogress nounwind uwtable
define linkonce_odr noundef i32 @_ZNK8QuantLib10TypePayoff10optionTypeEv(ptr noundef nonnull align 8 dereferenceable(12) %this) #5 comdat align 2 {
entry:
  %this.addr = alloca ptr, align 8
  store ptr %this, ptr %this.addr, align 8, !tbaa !3
  %this1 = load ptr, ptr %this.addr, align 8
  %type_ = getelementptr inbounds nuw %"class.QuantLib::TypePayoff", ptr %this1, i32 0, i32 1
  %0 = load i32, ptr %type_, align 8, !tbaa !23
  ret i32 %0
}

; Function Attrs: mustprogress uwtable
define linkonce_odr noundef ptr @_ZNK5boost10shared_ptrIN8QuantLib18PlainVanillaPayoffEEptEv(ptr noundef nonnull align 8 dereferenceable(16) %this) #3 comdat align 2 {
entry:
  %this.addr = alloca ptr, align 8
  store ptr %this, ptr %this.addr, align 8, !tbaa !3
  %this1 = load ptr, ptr %this.addr, align 8
  %px = getelementptr inbounds nuw %"class.boost::shared_ptr.18", ptr %this1, i32 0, i32 0
  %0 = load ptr, ptr %px, align 8, !tbaa !20
  %cmp = icmp ne ptr %0, null
  %lnot = xor i1 %cmp, true
  %lnot2 = xor i1 %lnot, true
  %conv = zext i1 %lnot2 to i64
  %expval = call i64 @llvm.expect.i64(i64 %conv, i64 1)
  %tobool = icmp ne i64 %expval, 0
  br i1 %tobool, label %cond.true, label %cond.false

cond.true:                                        ; preds = %entry
  br label %cond.end

cond.false:                                       ; preds = %entry
  call void @_ZN5boost16assertion_failedEPKcS1_S1_l(ptr noundef @.str.77, ptr noundef @__PRETTY_FUNCTION__._ZNK5boost10shared_ptrIN8QuantLib18PlainVanillaPayoffEEptEv, ptr noundef @.str.78, i64 noundef 784)
  br label %cond.end

cond.end:                                         ; preds = %cond.false, %cond.true
  %px3 = getelementptr inbounds nuw %"class.boost::shared_ptr.18", ptr %this1, i32 0, i32 0
  %1 = load ptr, ptr %px3, align 8, !tbaa !20
  ret ptr %1
}

; Function Attrs: mustprogress uwtable
define noundef double @_ZN8QuantLib38bachelierBlackFormulaForwardDerivativeERKN5boost10shared_ptrINS_18PlainVanillaPayoffEEEddd(ptr noundef nonnull align 8 dereferenceable(16) %payoff, double noundef %forward, double noundef %stdDev, double noundef %discount) #3 {
entry:
  %payoff.addr = alloca ptr, align 8
  %forward.addr = alloca double, align 8
  %stdDev.addr = alloca double, align 8
  %discount.addr = alloca double, align 8
  store ptr %payoff, ptr %payoff.addr, align 8, !tbaa !3
  store double %forward, ptr %forward.addr, align 8, !tbaa !11
  store double %stdDev, ptr %stdDev.addr, align 8, !tbaa !11
  store double %discount, ptr %discount.addr, align 8, !tbaa !11
  %0 = load ptr, ptr %payoff.addr, align 8, !tbaa !3
  %call = call noundef ptr @_ZNK5boost10shared_ptrIN8QuantLib18PlainVanillaPayoffEEptEv(ptr noundef nonnull align 8 dereferenceable(16) %0)
  %call1 = call noundef i32 @_ZNK8QuantLib10TypePayoff10optionTypeEv(ptr noundef nonnull align 8 dereferenceable(12) %call)
  %1 = load ptr, ptr %payoff.addr, align 8, !tbaa !3
  %call2 = call noundef ptr @_ZNK5boost10shared_ptrIN8QuantLib18PlainVanillaPayoffEEptEv(ptr noundef nonnull align 8 dereferenceable(16) %1)
  %call3 = call noundef double @_ZNK8QuantLib17StrikedTypePayoff6strikeEv(ptr noundef nonnull align 8 dereferenceable(24) %call2)
  %2 = load double, ptr %forward.addr, align 8, !tbaa !11
  %3 = load double, ptr %stdDev.addr, align 8, !tbaa !11
  %4 = load double, ptr %discount.addr, align 8, !tbaa !11
  %call4 = call noundef double @_ZN8QuantLib38bachelierBlackFormulaForwardDerivativeENS_6Option4TypeEdddd(i32 noundef %call1, double noundef %call3, double noundef %2, double noundef %3, double noundef %4)
  ret double %call4
}